; Function Attrs: nounwind uwtable
define ptr @l_Lean_throwUnknownConstant___at___private_Lean_Elab_Extra_0__Lean_Elab_Term_Op_toTree_processUnOp___spec__1(ptr noundef %0, ptr noundef %1, ptr noundef %2, ptr noundef %3, ptr noundef %4, ptr noundef %5, ptr noundef %6, ptr noundef %7) local_unnamed_addr #0 {
  %9 = tail call ptr @l_Lean_MessageData_ofConstName(ptr noundef %0, i8 noundef zeroext 0) #7
  %10 = load ptr, ptr @l_Lean_throwUnknownConstant___at___private_Lean_Elab_Extra_0__Lean_Elab_Term_Op_toTree_processUnOp___spec__1___closed__2, align 8, !tbaa !4
  tail call void @lean_inc_heartbeat() #7
  %11 = tail call noalias ptr @mi_malloc_small(i64 noundef 24) #7
  %12 = icmp eq ptr %11, null
  br i1 %12, label %13, label %lean_alloc_ctor.exit

13:                                               ; preds = %8
  tail call void @lean_internal_panic_out_of_memory() #8
  unreachable

lean_alloc_ctor.exit:                             ; preds = %8
  %14 = getelementptr inbounds nuw i8, ptr %11, i64 4
  store i32 1, ptr %11, align 4, !tbaa !8
  store i32 117571608, ptr %14, align 4
  %15 = getelementptr inbounds nuw i8, ptr %11, i64 8
  store ptr %10, ptr %15, align 8, !tbaa !4
  %16 = getelementptr inbounds nuw i8, ptr %11, i64 16
  store ptr %9, ptr %16, align 8, !tbaa !4
  %17 = load ptr, ptr @l_Lean_throwUnknownConstant___at___private_Lean_Elab_Extra_0__Lean_Elab_Term_Op_toTree_processUnOp___spec__1___closed__4, align 8, !tbaa !4
  tail call void @lean_inc_heartbeat() #7
  %18 = tail call noalias ptr @mi_malloc_small(i64 noundef 24) #7
  %19 = icmp eq ptr %18, null
  br i1 %19, label %20, label %lean_alloc_ctor.exit18

20:                                               ; preds = %lean_alloc_ctor.exit
  tail call void @lean_internal_panic_out_of_memory() #8
  unreachable

lean_alloc_ctor.exit18:                           ; preds = %lean_alloc_ctor.exit
  %21 = getelementptr inbounds nuw i8, ptr %18, i64 4
  store i32 1, ptr %18, align 4, !tbaa !8
  store i32 117571608, ptr %21, align 4
  %22 = getelementptr inbounds nuw i8, ptr %18, i64 8
  store ptr %11, ptr %22, align 8, !tbaa !4
  %23 = getelementptr inbounds nuw i8, ptr %18, i64 16
  store ptr %17, ptr %23, align 8, !tbaa !4
  %24 = load ptr, ptr @l_Lean_unknownIdentifierMessageTag, align 8, !tbaa !4
  tail call void @lean_inc_heartbeat() #7
  %25 = tail call noalias ptr @mi_malloc_small(i64 noundef 24) #7
  %26 = icmp eq ptr %25, null
  br i1 %26, label %27, label %l_Lean_throwUnknownIdentifier___at___private_Lean_Elab_Extra_0__Lean_Elab_Term_Op_toTree_processUnOp___spec__2.exit

27:                                               ; preds = %lean_alloc_ctor.exit18
  tail call void @lean_internal_panic_out_of_memory() #8
  unreachable

l_Lean_throwUnknownIdentifier___at___private_Lean_Elab_Extra_0__Lean_Elab_Term_Op_toTree_processUnOp___spec__2.exit: ; preds = %lean_alloc_ctor.exit18
  %28 = getelementptr inbounds nuw i8, ptr %25, i64 4
  store i32 1, ptr %25, align 4, !tbaa !8
  store i32 134348824, ptr %28, align 4
  %29 = getelementptr inbounds nuw i8, ptr %25, i64 8
  store ptr %24, ptr %29, align 8, !tbaa !4
  %30 = getelementptr inbounds nuw i8, ptr %25, i64 16
  store ptr %18, ptr %30, align 8, !tbaa !4
  %31 = tail call ptr @l_Lean_throwError___at___private_Lean_Elab_Extra_0__Lean_Elab_Term_Op_toTree_processUnOp___spec__3(ptr noundef nonnull %25, ptr noundef %1, ptr noundef %2, ptr noundef %3, ptr noundef %4, ptr noundef %5, ptr noundef %6, ptr noundef %7)
  ret ptr %31
}